; Function Attrs: mustprogress uwtable
define hidden noundef ptr @_Z18mk_elim_and_tacticR11ast_managerRK10params_ref(ptr noundef nonnull align 8 dereferenceable(976) %0, ptr noundef nonnull align 8 dereferenceable(8) %1) local_unnamed_addr #3 personality ptr @__gxx_personality_v0 {
  %3 = alloca %class.params_ref, align 8
  call void @llvm.lifetime.start.p0(i64 8, ptr nonnull %3) #19
  call void @_ZN10params_refC1ERKS_(ptr noundef nonnull align 8 dereferenceable(8) %3, ptr noundef nonnull align 8 dereferenceable(8) %1)
  invoke void @_ZN10params_ref8set_boolEPKcb(ptr noundef nonnull align 8 dereferenceable(8) %3, ptr noundef nonnull @.str, i1 noundef zeroext true)
          to label %4 unwind label %19

4:                                                ; preds = %2
  %5 = invoke noalias noundef ptr @_ZN6memory8allocateEm(i64 noundef 32)
          to label %.noexc unwind label %19

.noexc:                                           ; preds = %4
  %6 = getelementptr inbounds nuw i8, ptr %5, i64 8
  store i32 0, ptr %6, align 8, !tbaa !3
  store ptr getelementptr inbounds nuw inrange(-16, 192) (i8, ptr @_ZTV15simplify_tactic, i64 16), ptr %5, align 8, !tbaa !9
  %7 = getelementptr inbounds nuw i8, ptr %5, i64 12
  store i8 1, ptr %7, align 4, !tbaa !11
  %8 = getelementptr inbounds nuw i8, ptr %5, i64 24
  invoke void @_ZN10params_refC1ERKS_(ptr noundef nonnull align 8 dereferenceable(8) %8, ptr noundef nonnull align 8 dereferenceable(8) %3)
          to label %.noexc3 unwind label %19

.noexc3:                                          ; preds = %.noexc
  %9 = invoke noalias noundef ptr @_ZN6memory8allocateEm(i64 noundef 32)
          to label %10 unwind label %12

10:                                               ; preds = %.noexc3
  store ptr %0, ptr %9, align 8, !tbaa !18
  %11 = getelementptr inbounds nuw i8, ptr %9, i64 8
  invoke void @_ZN11th_rewriterC1ER11ast_managerRK10params_ref(ptr noundef nonnull align 8 dereferenceable(16) %11, ptr noundef nonnull align 8 dereferenceable(976) %0, ptr noundef nonnull align 8 dereferenceable(8) %3)
          to label %_ZN15simplify_tacticC2ER11ast_managerRK10params_ref.exit.i unwind label %12

12:                                               ; preds = %10, %.noexc3
  %13 = landingpad { ptr, i32 }
          cleanup
  call void @_ZN10params_refD1Ev(ptr noundef nonnull align 8 dereferenceable(8) %8) #19
  br label %.body

_ZN15simplify_tacticC2ER11ast_managerRK10params_ref.exit.i: ; preds = %10
  %14 = getelementptr inbounds nuw i8, ptr %9, i64 24
  store i32 0, ptr %14, align 8, !tbaa !20
  %15 = getelementptr inbounds nuw i8, ptr %5, i64 16
  store ptr %9, ptr %15, align 8, !tbaa !24
  %16 = invoke noundef ptr @_Z5cleanP6tactic(ptr noundef nonnull %5)
          to label %_Z18mk_simplify_tacticR11ast_managerRK10params_ref.exit unwind label %19

_Z18mk_simplify_tacticR11ast_managerRK10params_ref.exit: ; preds = %_ZN15simplify_tacticC2ER11ast_managerRK10params_ref.exit.i
  %17 = invoke noundef ptr @_Z12using_paramsP6tacticRK10params_ref(ptr noundef %16, ptr noundef nonnull align 8 dereferenceable(8) %3)
          to label %18 unwind label %19

18:                                               ; preds = %_Z18mk_simplify_tacticR11ast_managerRK10params_ref.exit
  call void @_ZN10params_refD1Ev(ptr noundef nonnull align 8 dereferenceable(8) %3) #19
  call void @llvm.lifetime.end.p0(i64 8, ptr nonnull %3) #19
  ret ptr %17

19:                                               ; preds = %_ZN15simplify_tacticC2ER11ast_managerRK10params_ref.exit.i, %.noexc, %4, %_Z18mk_simplify_tacticR11ast_managerRK10params_ref.exit, %2
  %20 = landingpad { ptr, i32 }
          cleanup
  br label %.body

.body:                                            ; preds = %12, %19
  %eh.lpad-body = phi { ptr, i32 } [ %20, %19 ], [ %13, %12 ]
  call void @_ZN10params_refD1Ev(ptr noundef nonnull align 8 dereferenceable(8) %3) #19
  call void @llvm.lifetime.end.p0(i64 8, ptr nonnull %3) #19
  resume { ptr, i32 } %eh.lpad-body
}